; Function Attrs: nounwind uwtable
define internal void @hash_finalize() #0 {
  %1 = load volatile i64, ptr getelementptr inbounds nuw (i8, ptr @pmix_mca_gds_hash_component, i64 488), align 8, !tbaa !21
  %2 = icmp eq i64 %1, 0
  br i1 %2, label %._crit_edge, label %.lr.ph

.lr.ph:                                           ; preds = %0, %35
  %3 = load volatile i64, ptr getelementptr inbounds nuw (i8, ptr @pmix_mca_gds_hash_component, i64 488), align 8, !tbaa !21
  %4 = add i64 %3, -1
  store volatile i64 %4, ptr getelementptr inbounds nuw (i8, ptr @pmix_mca_gds_hash_component, i64 488), align 8, !tbaa !21
  %5 = load ptr, ptr getelementptr inbounds nuw (i8, ptr @pmix_mca_gds_hash_component, i64 464), align 8, !tbaa !25
  %6 = getelementptr inbounds nuw i8, ptr %5, i64 128
  %7 = load volatile ptr, ptr %6, align 8, !tbaa !26
  %8 = getelementptr inbounds nuw i8, ptr %5, i64 120
  %9 = load volatile ptr, ptr %8, align 8, !tbaa !27
  %10 = getelementptr inbounds nuw i8, ptr %9, i64 128
  store volatile ptr %7, ptr %10, align 8, !tbaa !26
  %11 = load volatile ptr, ptr %8, align 8, !tbaa !27
  store ptr %11, ptr getelementptr inbounds nuw (i8, ptr @pmix_mca_gds_hash_component, i64 464), align 8, !tbaa !25
  %12 = tail call i32 @pthread_mutex_lock(ptr noundef nonnull %5) #15
  %13 = icmp eq i32 %12, 35
  br i1 %13, label %14, label %pmix_obj_update.exit

14:                                               ; preds = %.lr.ph
  %15 = tail call ptr @__errno_location() #16
  store i32 35, ptr %15, align 4, !tbaa !3
  tail call void @perror(ptr noundef nonnull @.str.13) #17
  tail call void @abort() #18
  unreachable

pmix_obj_update.exit:                             ; preds = %.lr.ph
  %16 = getelementptr inbounds nuw i8, ptr %5, i64 48
  %17 = load i32, ptr %16, align 8, !tbaa !16
  %18 = add nsw i32 %17, -1
  store i32 %18, ptr %16, align 8, !tbaa !16
  %19 = tail call i32 @pthread_mutex_unlock(ptr noundef nonnull %5) #15
  %20 = icmp eq i32 %18, 0
  br i1 %20, label %21, label %35

21:                                               ; preds = %pmix_obj_update.exit
  %22 = getelementptr inbounds nuw i8, ptr %5, i64 40
  %23 = load ptr, ptr %22, align 8, !tbaa !13
  %24 = getelementptr inbounds nuw i8, ptr %23, i64 48
  %25 = load ptr, ptr %24, align 8, !tbaa !28
  %26 = load ptr, ptr %25, align 8, !tbaa !18
  %.not6.i = icmp eq ptr %26, null
  br i1 %.not6.i, label %pmix_obj_run_destructors.exit, label %.lr.ph.i

.lr.ph.i:                                         ; preds = %21, %.lr.ph.i
  %27 = phi ptr [ %29, %.lr.ph.i ], [ %26, %21 ]
  %.07.i = phi ptr [ %28, %.lr.ph.i ], [ %25, %21 ]
  tail call void %27(ptr noundef nonnull %5) #15
  %28 = getelementptr inbounds nuw i8, ptr %.07.i, i64 8
  %29 = load ptr, ptr %28, align 8, !tbaa !18
  %.not.i = icmp eq ptr %29, null
  br i1 %.not.i, label %pmix_obj_run_destructors.exit, label %.lr.ph.i, !llvm.loop !29

pmix_obj_run_destructors.exit:                    ; preds = %.lr.ph.i, %21
  %30 = getelementptr inbounds nuw i8, ptr %5, i64 96
  %31 = load ptr, ptr %30, align 8, !tbaa !30
  %.not17 = icmp eq ptr %31, null
  br i1 %.not17, label %34, label %32

32:                                               ; preds = %pmix_obj_run_destructors.exit
  %33 = getelementptr inbounds nuw i8, ptr %5, i64 56
  tail call void %31(ptr noundef nonnull %33, ptr noundef nonnull %5) #15
  br label %35

34:                                               ; preds = %pmix_obj_run_destructors.exit
  tail call void @free(ptr noundef nonnull %5) #15
  br label %35

35:                                               ; preds = %32, %34, %pmix_obj_update.exit
  %36 = load volatile i64, ptr getelementptr inbounds nuw (i8, ptr @pmix_mca_gds_hash_component, i64 488), align 8, !tbaa !21
  %37 = icmp eq i64 %36, 0
  br i1 %37, label %._crit_edge, label %.lr.ph, !llvm.loop !31

._crit_edge:                                      ; preds = %35, %0
  %38 = load ptr, ptr getelementptr inbounds nuw (i8, ptr @pmix_mca_gds_hash_component, i64 264), align 8, !tbaa !13
  %39 = getelementptr inbounds nuw i8, ptr %38, i64 48
  %40 = load ptr, ptr %39, align 8, !tbaa !28
  %41 = load ptr, ptr %40, align 8, !tbaa !18
  %.not6.i20 = icmp eq ptr %41, null
  br i1 %.not6.i20, label %pmix_obj_run_destructors.exit24, label %.lr.ph.i21

.lr.ph.i21:                                       ; preds = %._crit_edge, %.lr.ph.i21
  %42 = phi ptr [ %44, %.lr.ph.i21 ], [ %41, %._crit_edge ]
  %.07.i22 = phi ptr [ %43, %.lr.ph.i21 ], [ %40, %._crit_edge ]
  tail call void %42(ptr noundef nonnull getelementptr inbounds nuw (i8, ptr @pmix_mca_gds_hash_component, i64 224)) #15
  %43 = getelementptr inbounds nuw i8, ptr %.07.i22, i64 8
  %44 = load ptr, ptr %43, align 8, !tbaa !18
  %.not.i23 = icmp eq ptr %44, null
  br i1 %.not.i23, label %pmix_obj_run_destructors.exit24, label %.lr.ph.i21, !llvm.loop !29

pmix_obj_run_destructors.exit24:                  ; preds = %.lr.ph.i21, %._crit_edge
  %45 = load volatile i64, ptr getelementptr inbounds nuw (i8, ptr @pmix_mca_gds_hash_component, i64 760), align 8, !tbaa !21
  %46 = icmp eq i64 %45, 0
  br i1 %46, label %._crit_edge43, label %.lr.ph42

.lr.ph42:                                         ; preds = %pmix_obj_run_destructors.exit24, %79
  %47 = load volatile i64, ptr getelementptr inbounds nuw (i8, ptr @pmix_mca_gds_hash_component, i64 760), align 8, !tbaa !21
  %48 = add i64 %47, -1
  store volatile i64 %48, ptr getelementptr inbounds nuw (i8, ptr @pmix_mca_gds_hash_component, i64 760), align 8, !tbaa !21
  %49 = load ptr, ptr getelementptr inbounds nuw (i8, ptr @pmix_mca_gds_hash_component, i64 736), align 8, !tbaa !25
  %50 = getelementptr inbounds nuw i8, ptr %49, i64 128
  %51 = load volatile ptr, ptr %50, align 8, !tbaa !26
  %52 = getelementptr inbounds nuw i8, ptr %49, i64 120
  %53 = load volatile ptr, ptr %52, align 8, !tbaa !27
  %54 = getelementptr inbounds nuw i8, ptr %53, i64 128
  store volatile ptr %51, ptr %54, align 8, !tbaa !26
  %55 = load volatile ptr, ptr %52, align 8, !tbaa !27
  store ptr %55, ptr getelementptr inbounds nuw (i8, ptr @pmix_mca_gds_hash_component, i64 736), align 8, !tbaa !25
  %56 = tail call i32 @pthread_mutex_lock(ptr noundef nonnull %49) #15
  %57 = icmp eq i32 %56, 35
  br i1 %57, label %58, label %pmix_obj_update.exit18

58:                                               ; preds = %.lr.ph42
  %59 = tail call ptr @__errno_location() #16
  store i32 35, ptr %59, align 4, !tbaa !3
  tail call void @perror(ptr noundef nonnull @.str.13) #17
  tail call void @abort() #18
  unreachable

pmix_obj_update.exit18:                           ; preds = %.lr.ph42
  %60 = getelementptr inbounds nuw i8, ptr %49, i64 48
  %61 = load i32, ptr %60, align 8, !tbaa !16
  %62 = add nsw i32 %61, -1
  store i32 %62, ptr %60, align 8, !tbaa !16
  %63 = tail call i32 @pthread_mutex_unlock(ptr noundef nonnull %49) #15
  %64 = icmp eq i32 %62, 0
  br i1 %64, label %65, label %79

65:                                               ; preds = %pmix_obj_update.exit18
  %66 = getelementptr inbounds nuw i8, ptr %49, i64 40
  %67 = load ptr, ptr %66, align 8, !tbaa !13
  %68 = getelementptr inbounds nuw i8, ptr %67, i64 48
  %69 = load ptr, ptr %68, align 8, !tbaa !28
  %70 = load ptr, ptr %69, align 8, !tbaa !18
  %.not6.i27 = icmp eq ptr %70, null
  br i1 %.not6.i27, label %pmix_obj_run_destructors.exit31, label %.lr.ph.i28

.lr.ph.i28:                                       ; preds = %65, %.lr.ph.i28
  %71 = phi ptr [ %73, %.lr.ph.i28 ], [ %70, %65 ]
  %.07.i29 = phi ptr [ %72, %.lr.ph.i28 ], [ %69, %65 ]
  tail call void %71(ptr noundef nonnull %49) #15
  %72 = getelementptr inbounds nuw i8, ptr %.07.i29, i64 8
  %73 = load ptr, ptr %72, align 8, !tbaa !18
  %.not.i30 = icmp eq ptr %73, null
  br i1 %.not.i30, label %pmix_obj_run_destructors.exit31, label %.lr.ph.i28, !llvm.loop !29

pmix_obj_run_destructors.exit31:                  ; preds = %.lr.ph.i28, %65
  %74 = getelementptr inbounds nuw i8, ptr %49, i64 96
  %75 = load ptr, ptr %74, align 8, !tbaa !30
  %.not16 = icmp eq ptr %75, null
  br i1 %.not16, label %78, label %76

76:                                               ; preds = %pmix_obj_run_destructors.exit31
  %77 = getelementptr inbounds nuw i8, ptr %49, i64 56
  tail call void %75(ptr noundef nonnull %77, ptr noundef nonnull %49) #15
  br label %79

78:                                               ; preds = %pmix_obj_run_destructors.exit31
  tail call void @free(ptr noundef nonnull %49) #15
  br label %79

79:                                               ; preds = %76, %78, %pmix_obj_update.exit18
  %80 = load volatile i64, ptr getelementptr inbounds nuw (i8, ptr @pmix_mca_gds_hash_component, i64 760), align 8, !tbaa !21
  %81 = icmp eq i64 %80, 0
  br i1 %81, label %._crit_edge43, label %.lr.ph42, !llvm.loop !32

._crit_edge43:                                    ; preds = %79, %pmix_obj_run_destructors.exit24
  %82 = load ptr, ptr getelementptr inbounds nuw (i8, ptr @pmix_mca_gds_hash_component, i64 536), align 8, !tbaa !13
  %83 = getelementptr inbounds nuw i8, ptr %82, i64 48
  %84 = load ptr, ptr %83, align 8, !tbaa !28
  %85 = load ptr, ptr %84, align 8, !tbaa !18
  %.not6.i33 = icmp eq ptr %85, null
  br i1 %.not6.i33, label %pmix_obj_run_destructors.exit37, label %.lr.ph.i34

.lr.ph.i34:                                       ; preds = %._crit_edge43, %.lr.ph.i34
  %86 = phi ptr [ %88, %.lr.ph.i34 ], [ %85, %._crit_edge43 ]
  %.07.i35 = phi ptr [ %87, %.lr.ph.i34 ], [ %84, %._crit_edge43 ]
  tail call void %86(ptr noundef nonnull getelementptr inbounds nuw (i8, ptr @pmix_mca_gds_hash_component, i64 496)) #15
  %87 = getelementptr inbounds nuw i8, ptr %.07.i35, i64 8
  %88 = load ptr, ptr %87, align 8, !tbaa !18
  %.not.i36 = icmp eq ptr %88, null
  br i1 %.not.i36, label %pmix_obj_run_destructors.exit37, label %.lr.ph.i34, !llvm.loop !29

pmix_obj_run_destructors.exit37:                  ; preds = %.lr.ph.i34, %._crit_edge43
  ret void
}